; Function Attrs: mustprogress nofree norecurse nosync nounwind willreturn memory(argmem: write) uwtable
define dso_local void @_ZN4llvm14printBlockFreqERKNS_18BlockFrequencyInfoENS_14BlockFrequencyE(ptr dead_on_unwind noalias nocapture writable writeonly sret(%"class.llvm::Printable") align 8 %0, ptr noundef nonnull align 8 dereferenceable(8) %1, i64 %2) local_unnamed_addr #2 {
_ZN4llvm9PrintableC2ESt8functionIFvRNS_11raw_ostreamEEE.exit:
  %3 = getelementptr inbounds nuw i8, ptr %0, i64 24
  store ptr @"_ZNSt17_Function_handlerIFvRN4llvm11raw_ostreamEEZNS0_14printBlockFreqERKNS0_18BlockFrequencyInfoENS0_14BlockFrequencyEE3$_0E9_M_invokeERKSt9_Any_dataS2_", ptr %3, align 8
  %4 = getelementptr inbounds nuw i8, ptr %0, i64 16
  store ptr %1, ptr %0, align 8
  %.sroa.3.0..sroa_idx = getelementptr inbounds i8, ptr %0, i64 8
  store i64 %2, ptr %.sroa.3.0..sroa_idx, align 8
  store ptr @"_ZNSt17_Function_handlerIFvRN4llvm11raw_ostreamEEZNS0_14printBlockFreqERKNS0_18BlockFrequencyInfoENS0_14BlockFrequencyEE3$_0E10_M_managerERSt9_Any_dataRKSA_St18_Manager_operation", ptr %4, align 8
  ret void
}